
 Start         Length     Name                   Class
 0001:00000000 00014984H .text                   CODE
 0002:00000000 00000598H .data                   DATA
 0002:00000598 000008ADH .bss                    BSS


Detailed map of segments

 0001:00000000 00004513 C=CODE     S=.text    G=(none)   M=System   ACBP=A9
 0001:00004514 000001CC C=CODE     S=.text    G=(none)   M=SysInit  ACBP=A9
 0001:000046E0 00000038 C=CODE     S=.text    G=(none)   M=Types    ACBP=A9
 0001:00004718 000001A8 C=CODE     S=.text    G=(none)   M=Windows  ACBP=A9
 0001:000048C0 00000100 C=CODE     S=.text    G=(none)   M=TimeStampCounter ACBP=A9
 0001:000049C0 00000310 C=CODE     S=.text    G=(none)   M=SysConst ACBP=A9
 0001:00004CD0 00006190 C=CODE     S=.text    G=(none)   M=SysUtils ACBP=A9
 0001:0000AE60 00000038 C=CODE     S=.text    G=(none)   M=Messages ACBP=A9
 0001:0000AE98 000007FB C=CODE     S=.text    G=(none)   M=VarUtils ACBP=A9
 0001:0000B694 0000280E C=CODE     S=.text    G=(none)   M=Variants ACBP=A9
 0001:0000DEA4 00000098 C=CODE     S=.text    G=(none)   M=RTLConsts ACBP=A9
 0001:0000DF3C 00000084 C=CODE     S=.text    G=(none)   M=TypInfo  ACBP=A9
 0001:0000DFC0 00000038 C=CODE     S=.text    G=(none)   M=ActiveX  ACBP=A9
 0001:0000DFF8 00003466 C=CODE     S=.text    G=(none)   M=Classes  ACBP=A9
 0001:00011460 000001A8 C=CODE     S=.text    G=(none)   M=Math     ACBP=A9
 0001:00011608 00003379 C=CODE     S=.text    G=(none)   M=psi      ACBP=A9
 0002:00000000 00000098 C=DATA     S=.data    G=DGROUP   M=System   ACBP=A9
 0002:00000098 0000002C C=DATA     S=.data    G=DGROUP   M=SysInit  ACBP=A9
 0002:000000C4 00000250 C=DATA     S=.data    G=DGROUP   M=SysUtils ACBP=A9
 0002:00000314 00000008 C=DATA     S=.data    G=DGROUP   M=VarUtils ACBP=A9
 0002:0000031C 00000076 C=DATA     S=.data    G=DGROUP   M=Variants ACBP=A9
 0002:00000394 0000000C C=DATA     S=.data    G=DGROUP   M=TypInfo  ACBP=A9
 0002:000003A0 00000004 C=DATA     S=.data    G=DGROUP   M=Classes  ACBP=A9
 0002:000003A4 00000005 C=DATA     S=.data    G=DGROUP   M=psi      ACBP=A9
 0002:00001000 0000065C C=BSS      S=.bss     G=DGROUP   M=System   ACBP=A9
 0002:0000165C 00000014 C=BSS      S=.bss     G=DGROUP   M=SysInit  ACBP=A9
 0002:00001670 00000004 C=BSS      S=.bss     G=DGROUP   M=Types    ACBP=A9
 0002:00001674 00000004 C=BSS      S=.bss     G=DGROUP   M=Windows  ACBP=A9
 0002:00001678 0000000C C=BSS      S=.bss     G=DGROUP   M=TimeStampCounter ACBP=A9
 0002:00001684 00000004 C=BSS      S=.bss     G=DGROUP   M=SysConst ACBP=A9
 0002:00001688 00000120 C=BSS      S=.bss     G=DGROUP   M=SysUtils ACBP=A9
 0002:000017A8 00000004 C=BSS      S=.bss     G=DGROUP   M=Messages ACBP=A9
 0002:000017AC 0000005C C=BSS      S=.bss     G=DGROUP   M=VarUtils ACBP=A9
 0002:00001808 00000040 C=BSS      S=.bss     G=DGROUP   M=Variants ACBP=A9
 0002:00001848 00000004 C=BSS      S=.bss     G=DGROUP   M=RTLConsts ACBP=A9
 0002:0000184C 00000004 C=BSS      S=.bss     G=DGROUP   M=TypInfo  ACBP=A9
 0002:00001850 00000004 C=BSS      S=.bss     G=DGROUP   M=ActiveX  ACBP=A9
 0002:00001854 00000034 C=BSS      S=.bss     G=DGROUP   M=Classes  ACBP=A9
 0002:00001888 00000004 C=BSS      S=.bss     G=DGROUP   M=Math     ACBP=A9
 0002:0000188C 00000020 C=BSS      S=.bss     G=DGROUP   M=psi      ACBP=A9


  Address         Publics by Name

 0002:00001684       .1
 0002:00001848       .1
 0002:000017A8       .1
 0002:00001670       .1
 0002:00001668       .1
 0002:00001680       .1
 0002:00001888       .2
 0002:00001850       .3
 0002:00001674       .3
 0002:00001798       .35
 0002:0000185C       .45
 0002:000015B4       .5
 0002:00001804       .5
 0002:0000184C       .6
 0002:00001828       .81
 0001:00001878       @AbstractError
 0001:0000216C       @AfterConstruction
 0001:0000217C       @BeforeDestruction
 0001:000020AC       @CallDynaInst
 0001:00002114       @ClassCreate
 0001:00002164       @ClassDestroy
 0001:000018E8       @Close
 0001:00001774       @Copy
 0001:0000350C       @CopyArray
 0001:000033F0       @CopyRecord
 0001:00003600       @DispCallByIDError
 0001:0000C134       @DispInvokeError
 0001:0000245C       @DoneExcept
 0001:00003830       @DynArrayAsg
 0001:000037F4       @DynArrayClear
 0001:00003634       @DynArrayHigh
 0001:0000362C       @DynArrayLength
 0001:000037E8       @DynArraySetLength
 0001:00002544       @ExceptionHandler
 0001:00001818       @EXP
 0001:00001940       @FillChar
 0001:000033CC       @Finalize
 0001:000032E0       @FinalizeArray
 0001:00003294       @FinalizeRecord
 0001:00001E30       @FpuInit
 0001:00001D6C       @FpuMaskInit
 0001:00001830       @FRAC
 0001:00001670       @FreeMem
 0001:00001650       @GetMem
 0001:00004614       @GetTls
 0001:000029F0       @Halt
 0001:00002918       @Halt0
 0001:0000227C       @HandleAnyException
 0001:000023A8       @HandleFinally
 0001:000027DC       @InitImports
 0001:00004660       @InitLib
 0001:000027B4       @InitResStringImports
 0001:00003E98       @IntfClear
 0001:00003EB0       @IntfCopy
 0001:00002058       @IsClass
 0001:00001D3C       @isNECWindows
 0001:00002A2C       @LStrArrayClr
 0001:00002A5C       @LStrAsg
 0001:00002CAC       @LStrCat
 0001:00002CF0       @LStrCat3
 0001:00002D64       @LStrCatN
 0001:00002A08       @LStrClr
 0001:00002DF0       @LStrCmp
 0001:00002EEC       @LStrCopy
 0001:00002C78       @LStrFromArray
 0001:00002BF0       @LStrFromChar
 0001:00002C00       @LStrFromPChar
 0001:00002AF8       @LStrFromPCharLen
 0001:00002C30       @LStrFromPWChar
 0001:00002B64       @LStrFromPWCharLen
 0001:00002C6C       @LStrFromString
 0001:00002C90       @LStrFromWStr
 0001:00002AA0       @LStrLAsg
 0001:00002CA4       @LStrLen
 0001:00002F2C       @LStrPos
 0001:00002F74       @LStrSetLength
 0001:00002E94       @LStrToPChar
 0001:00002ACC       @NewAnsiString
 0001:00002FE0       @NewWideString
 0001:00001A50       @Pow10
 0001:00002408       @RaiseAgain
 0001:000023E0       @RaiseExcept
 0001:00001690       @ReallocMem
 0001:000029FC       @RunError
 0001:00001A34       @SetEq
 0001:000026EC       @StartLib
 0001:00000230       @strlen
 0001:00001854       @TRUNC
 0001:0000248C       @TryFinallyExit
 0001:00002EE4       @UniqueStringA
 0001:00001960       @ValLong
 0001:0000D6E8       @VarAddRef
 0001:0000C40C       @VarClear
 0001:0000C420       @VarClr
 0001:000032C8       @VarClr
 0001:000033D8       @VarCopy
 0001:0000C734       @VarCopy
 0001:0000CA60       @VarToLStr
 0001:0000D188       @VarToWStr
 0001:00003020       @WStrArrayClr
 0001:00003044       @WStrAsg
 0001:00003008       @WStrClr
 0001:00003180       @WStrCmp
 0001:00003204       @WStrCopy
 0001:00003154       @WStrFromLStr
 0001:00003068       @WStrFromPCharLen
 0001:00003118       @WStrFromPWChar
 0001:000030F4       @WStrFromPWCharLen
 0001:00003174       @WStrLen
 0001:00003250       @WStrSetLength
 0001:00003164       @WStrToPWChar
 0001:00001744       @_IOTest
 0001:00003608       @_llmul
 0002:00001894       a
 0001:0000952C       AbstractErrorHandler
 0002:00001028       AbstractErrorProc
 0002:00000144       AccessMode
 0001:0000DFF0       ActiveX
 0001:0000035C       AddBlockAfter
 0001:00003D2C       AddModuleUnloadProc
 0001:00003D3C       AddModuleUnloadProc
 0001:000058C4       AllocMem
 0002:000015AC       AllocMemCount
 0002:000015B0       AllocMemSize
 0001:00004544       AllocTlsBuffer
 0001:000059D4       AnsiCompareStr
 0001:00005A0C       AnsiCompareText
 0001:00009D20       AnsiPos
 0001:00005A44       AnsiSameText
 0001:00009D58       AnsiStrPos
 0001:00009DF8       AnsiStrRScan
 0001:00009E20       AnsiStrScan
 0001:000042D0       AnsiToUtf8
 0001:00007520       AppendChars
 0001:000078E4       AppendFormat
 0001:00007584       AppendNumber
 0001:00007564       AppendString
 0001:00009510       AssertErrorHandler
 0002:00001020       AssertErrorProc
 0002:00001604       avail
 0001:00006000       BackfillGetDiskFreeSpaceEx
 0001:0000B128       BackupVarBoolFromStr
 0001:0000B288       BackupVarBStrFromBool
 0001:0000B1A8       BackupVarBStrFromCy
 0001:0000B218       BackupVarBStrFromDate
 0001:0000B0BC       BackupVarCyFromStr
 0001:0000B050       BackupVarDateFromStr
 0001:0000AF0C       BackupVarI4FromStr
 0001:0000AEB8       BackupVariantChangeTypeEx
 0001:0000AF78       BackupVarR4FromStr
 0001:0000AFE4       BackupVarR8FromStr
 0001:0000AEF4       BiUnimplemented
 0002:000015DC       blockDescBlockList
 0002:000015E0       blockDescFreeList
 0002:00000394       BooleanIdents
 0002:00000324       BooleanToStringRule
 0001:00005DD4       BoolToStr
 0001:0000C7E8       BoolToWStrViaOS
 0001:00009AD4       ByteToCharIndex
 0001:00009AAC       ByteToCharLen
 0001:00009A70       ByteType
 0001:000099F8       ByteTypeTest
 0001:000048C4       CalibrateTSC
 0002:00001820       ChangeAnyProc
 0001:00002B28       CharFromWChar
 0001:00009CA8       CharLength
 0001:00004860       CharNext
 0001:000001B0       CharNext
 0001:00009BBC       CharToByteIndex
 0001:00009C20       CharToByteLen
 0001:00004868       CharToOemA
 0001:000021F8       CheckJmp
 0002:00000328       CInvalidCustomVariantType
 0001:000113CC       Classes
 0002:0000181C       ClearAnyProc
 0001:0000DA24       ClearVariantTypeList
 0001:00004718       CloseHandle
 0002:0000103C       CmdLine
 0002:00001038       CmdShow
 0001:0000AF00       CmpUnimplemented
 0001:0000063C       Commit
 0002:00001620       committedRoot
 0001:00004720       CompareString
 0001:0000595C       CompareText
 0001:00005CFC       CompareWith
 0001:00008F6C       ConvertAddr
 0001:00007674       ConvertEraString
 0001:00005888       ConvertError
 0001:000058A0       ConvertErrorFmt
 0001:000077DC       ConvertYearString
 0001:0000363C       CopyArray
 0001:00009B2C       CountChars
 0002:00001678       CPUSpeed
 0001:00009454       CreateAssertException
 0001:000095DC       CreateAVObject
 0001:00004728       CreateEvent
 0001:00004730       CreateFile
 0001:00009380       CreateInOutError
 0002:00000380       CRelationshipToBoolean
 0002:00000314       CResult
 0002:0000013C       cSimpleBoolStrs
 0002:0000032C       CText
 0002:00001618       curAlloc
 0002:00001690       CurrencyDecimals
 0002:0000168C       CurrencyFormat
 0002:00001688       CurrencyString
 0001:0001393C       CurrentEstimate
 0001:0000750C       CurrentYear
 0001:0000704C       CurrToStr
 0001:0000C778       CurrToWStrViaOS
 0001:00005AAC       CvtInt
 0001:00005B18       CvtInt64
 0002:0000017C       CWNear
 0002:00001691       DateSeparator
 0001:000080F4       DateTimeToStr
 0001:00008098       DateTimeToString
 0001:00007164       DateTimeToTimeStamp
 0001:0000C7B0       DateToWStrViaOS
 0001:000074E4       DayOfWeek
 0002:00000178       DCon10
 0002:00000024       DebugHook
 0002:000003A4       DebugLevel
 0002:0000168F       DecimalSeparator
 0001:000074C4       DecodeDate
 0001:00007378       DecodeDateFully
 0001:00007218       DecodeTime
 0001:000006D0       Decommit
 0001:00000CEC       DecommitFree
 0002:000015F4       decommittedRoot
 0002:00000020       Default8087CW
 0002:000015B8       DefaultUserCodePage
 0002:00000208       DefLongDayNames
 0002:000001BC       DefLongMonthNames
 0002:000001EC       DefShortDayNames
 0002:0000018C       DefShortMonthNames
 0001:00003880       DelayLoadResourceModule
 0001:0000038C       DeleteBlock
 0001:000002FC       DeleteCriticalSection
 0001:00004738       DeleteCriticalSection
 0001:00000B34       DeleteFree
 0002:00000088       dig
 0002:00001000       DispCallByIDProc
 0001:00012738       DistActive
 0001:0000586C       DivMod
 0002:00001664       DllProc
 0001:00009908       DoneExceptions
 0001:00011290       DoneThreadSynchronization
 0002:0000039C       DotSep
 0001:0000F318       DoWrite
 0002:000003A8       DTC
 0001:00003654       DynArrayClear
 0001:0000365C       DynArraySetLength
 0001:00009354       EHeapException.FreeInstance
 0002:00001808       EmptyParam
 0002:000000C4       EmptyStr
 0002:000000C8       EmptyWideStr
 0002:0000189C       ent
 0001:000002EC       EnterCriticalSection
 0001:00004740       EnterCriticalSection
 0001:00004748       EnumCalendarInfoA
 0001:00008BE0       EnumEraNames
 0001:00008C1C       EnumEraYearOffsets
 0002:00001758       EraNames
 0001:0000836C       EraToYear
 0002:00001774       EraYearOffsets
 0002:00000060       errCaption
 0001:00001738       Error
 0002:00000004       ErrorAddr
 0001:000016EC       ErrorAt
 0001:00009400       ErrorHandler
 0002:00000224       ErrorMap
 0002:00001008       ErrorProc
 0002:000013E0       ErrOutput
 0001:00012A98       EstimateTime
 0002:0000100C       ExceptClsProc
 0001:00009874       ExceptHandler
 0001:000091C8       Exception.Create
 0001:00009204       Exception.CreateFmt
 0001:00009284       Exception.CreateRes
 0001:000092C0       Exception.CreateResFmt
 0002:0000101C       ExceptionClass
 0001:00008F78       ExceptionErrorMessage
 0002:0000025C       ExceptMap
 0002:00001010       ExceptObjProc
 0002:00001004       ExceptProc
 0002:00000000       ExitCode
 0001:0000285C       ExitDll
 0002:00001040       ExitProc
 0001:000001B8       ExitProcess
 0002:00001024       ExitProcessProc
 0001:000045F0       ExitProcessTLS
 0001:000045C8       ExitThreadTLS
 0001:00005FC4       ExpandFileName
 0001:00005F8C       ExtractFileName
 0002:00001794       FalseBoolStrs
 0002:0000016C       FCon1E18
 0001:00005F34       FileClose
 0001:00005E78       FileCreate
 0001:00005E9C       FileCreate
 0002:00000008       FileMode
 0001:00005E20       FileOpen
 0001:00005EA4       FileRead
 0001:00005EFC       FileSeek
 0001:00005ED0       FileWrite
 0001:00000C1C       FillAfterGap
 0001:00000BC8       FillBeforeGap
 0001:00000CB4       FillerSizeAfterGap
 0001:00000C44       FillerSizeBeforeGap
 0001:00004974       Finalization
 0001:00004C98       Finalization
 0001:000043EC       Finalization
 0001:000115D0       Finalization
 0001:00004888       Finalization
 0001:0001484C       Finalization
 0001:0000DF68       Finalization
 0001:000046A8       Finalization
 0001:0000DF04       Finalization
 0001:0000DD80       Finalization
 0001:0000B654       Finalization
 0001:000046E0       Finalization
 0001:0000AE60       Finalization
 0001:0000AC60       Finalization
 0001:0000DFC0       Finalization
 0001:0001131C       Finalization
 0001:0000364C       FinalizeArray
 0001:0000262C       FinalizeUnits
 0001:000038F0       FindBS
 0001:000001C8       FindClose
 0001:00000B98       FindCommitted
 0001:0000DCC8       FindCustomVariantType
 0001:000001D0       FindFirstFile
 0002:00001868       FindGlobalComponentProcs
 0001:00003858       FindHInstance
 0001:0000B31C       FindProc
 0001:000038C8       FindResourceHInstance
 0001:00012764       FinishDist
 0002:000017A4       FLanguages
 0001:00006CDC       FloatToDecimal
 0001:0000701C       FloatToStr
 0001:00006714       FloatToText
 0001:000069E8       FloatToTextFmt
 0001:00011490       Floor
 0001:000018DC       Flush
 0002:00000180       FMSecsPerDay
 0001:00006610       FmtStr
 0001:000065FC       Format
 0002:00000188       Format
 0001:00006244       FormatBuf
 0001:00006238       FormatClearStr
 0001:000061BC       FormatError
 0002:00000164       FormatErrorStrs
 0001:0000707C       FormatFloat
 0001:00004750       FormatMessage
 0001:00006214       FormatVarToStr
 0001:00001A48       FPower10
 0001:0000A980       FreeAndNil
 0001:00000904       FreeCommitted
 0001:00000E24       FreeCurAlloc
 0001:000112A8       FreeIntConstList
 0001:000001D8       FreeLibrary
 0001:00000584       FreeSpace
 0001:0000A4EC       FreeTerminateProcs
 0001:00004758       GetACP
 0001:00000304       GetBlockDesc
 0001:000002A0       GetCmdShow
 0001:000001E0       GetCommandLine
 0001:00000750       GetCommitted
 0001:000007E0       GetCommittedAt
 0001:000075D0       GetCount
 0001:00004760       GetCPInfo
 0001:00004768       GetCurrentProcess
 0001:00004770       GetCurrentThread
 0001:00004778       GetCurrentThreadId
 0001:00000290       GetCurrentThreadId
 0001:000075FC       GetDate
 0001:00004780       GetDateFormat
 0001:00008284       GetDateOrder
 0001:00011744       GetDebugLevel
 0001:00004788       GetDiskFreeSpaceA
 0002:00000138       GetDiskFreeSpaceEx
 0001:0000207C       GetDynaMethod
 0001:00008C94       GetEraNamesAndYearOffsets
 0001:00008318       GetEraYearOffset
 0001:000095C4       GetExceptionClass
 0001:000097A8       GetExceptionObject
 0001:0000A0C0       GetFormatSettings
 0001:00004790       GetFullPathName
 0001:00001D34       GetKeyboardType
 0001:00004798       GetLastError
 0001:00008A58       GetLocaleChar
 0001:000047A8       GetLocaleInfo
 0001:000001E8       GetLocaleInfo
 0001:00008A0C       GetLocaleStr
 0001:000047A0       GetLocalTime
 0001:000047B0       GetModuleFileName
 0001:000001F0       GetModuleFileName
 0001:000047B8       GetModuleHandle
 0001:000001F8       GetModuleHandle
 0001:00008ABC       GetMonthDayNames
 0001:000047C0       GetPriorityClass
 0001:00000200       GetProcAddress
 0001:000047C8       GetProcAddress
 0001:000004A8       GetSpace
 0001:0000050C       GetSpaceAt
 0001:00000208       GetStartupInfo
 0001:000047D0       GetStdHandle
 0001:00000188       GetStdHandle
 0001:000047D8       GetStringTypeEx
 0001:00004870       GetSystemMetrics
 0001:000047E0       GetThreadLocale
 0001:00000210       GetThreadLocale
 0001:000047E8       GetThreadPriority
 0001:00007634       GetTime
 0001:00004550       GetTlsSize
 0001:000048C0       GetTSC
 0001:00000298       GetVersion
 0001:000047F0       GetVersionEx
 0002:0000186C       GlobalFixupList
 0002:00001854       GlobalNameSpace
 0002:000015C0       heapErrorCode
 0002:000015C4       heapLock
 0002:00000134       HexDisplayPrefix
 0001:000125E4       HighestActive
 0002:00001660       HInstance
 0002:00000184       IMSecsPerDay
 0001:0000C428       InBounds
 0001:0000C188       InBounds
 0001:0000C458       Increment
 0001:0000C1B8       Increment
 0001:00000990       InitAllocator
 0002:00001630       InitContext
 0001:0000A50C       InitDriveSpacePtr
 0001:00009884       InitExceptions
 0001:000047F8       InitializeCriticalSection
 0001:000002E4       InitializeCriticalSection
 0002:000015BC       initialized
 0001:00004654       InitializeModule
 0001:0000B348       InitializeVarUtils
 0001:00009ED4       InitLeadBytes
 0001:00009988       InitPlatformId
 0001:0000459C       InitProcessTLS
 0001:00009F4C       InitSysLocale
 0001:0001125C       InitThreadSynchronization
 0001:00004558       InitThreadTLS
 0001:0000268C       InitUnits
 0002:00001048       Input
 0001:00000D9C       InsertFree
 0002:00001860       IntConstList
 0001:0000A574       InterlockedDecrement
 0001:00000288       InterlockedDecrement
 0001:0000A580       InterlockedExchange
 0001:0000A588       InterlockedExchangeAdd
 0001:00000280       InterlockedIncrement
 0001:0000A568       InterlockedIncrement
 0001:00001894       InternalFlush
 0001:00000BF8       InternalFreeMem
 0001:00002EA0       InternalUniqueString
 0001:00011460       IntPower
 0001:00005C0C       IntToHex
 0001:00005BE4       IntToStr
 0001:00005AF8       IntToStr
 0002:000017A0       InvalidPointer
 0001:00001F50       InvokeImplGetter
 0001:000017B8       IOResult
 0002:00001044       IsConsole
 0001:00007274       IsLeapYear
 0002:00001034       IsLibrary
 0002:00001045       IsMultiThread
 0001:00009F34       IsWesternGroup
 0002:00000028       JITEnable
 0001:00005F3C       LastDelimiter
 0002:000018A8       last_e
 0001:00004378       LCIDToCodePage
 0001:00009E60       LCIDToCodePage
 0002:00000114       LeadBytes
 0001:00004800       LeaveCriticalSection
 0001:000002F4       LeaveCriticalSection
 0002:00000030       LibModuleList
 0002:00001756       ListSeparator
 0001:00000218       LoadLibraryEx
 0001:00003ABC       LoadResourceModule
 0001:00004320       LoadResString
 0001:00004878       LoadString
 0001:00000220       LoadString
 0001:00004514       LocalAlloc
 0001:000002C4       LocalAlloc
 0001:000002CC       LocalFree
 0001:0000451C       LocalFree
 0001:00008A80       LocalGetLocaleStr
 0002:00001698       LongDateFormat
 0002:0000172C       LongDayNames
 0002:000016E0       LongMonthNames
 0002:000016AC       LongTimeFormat
 0001:00005920       LowerCase
 0001:00000228       lstrcpyn
 0002:0000182C       LVarTypes
 0002:00001830       LVarTypeSync
 0002:0000102C       MainInstance
 0002:00001030       MainThreadID
 0001:00000354       MakeEmpty
 0001:00002800       MakeErrorMessage
 0001:00009544       MapException
 0001:000024A4       MapToRunError
 0001:00011600       Math
 0001:00011588       Max
 0002:00000038       MemoryManager
 0001:000003A4       MergeBlockAfter
 0001:00000E70       MergeCommit
 0001:00004880       MessageBox
 0001:000001C0       MessageBox
 0001:0000AE90       Messages
 0002:0000009C       Module
 0002:0000165D       ModuleIsCpp
 0002:0000165C       ModuleIsLib
 0001:00011314       ModuleUnload
 0002:00000034       ModuleUnloadList
 0002:000000E4       MonthDays
 0001:000017D8       Move
 0001:00000238       MultiByteToWideChar
 0002:0000168D       NegCurrFormat
 0001:00000EFC       NewCommit
 0001:00000F28       NewCommitAt
 0001:00009CE4       NextCharIndex
 0001:000131C8       NextTrial
 0002:0000002C       NoErrMsg
 0001:000125F0       Normalize
 0001:000021E4       NotifyAnyExcept
 0001:000021CC       NotifyExcept
 0001:00002218       NotifyExceptFinally
 0001:00003DBC       NotifyModuleUnload
 0001:000021A8       NotifyNonDelphiException
 0001:0000218C       NotifyReRaise
 0001:00002240       NotifyTerminate
 0001:0000225C       NotifyUnhandled
 0002:00000320       NullAsStringValue
 0002:0000031C       NullStrictConvert
 0002:0000179C       OutOfMemory
 0002:00001214       Output
 0002:0000188C       p
 0002:00001890       par
 0001:0000E9C8       PointerInModule
 0001:00013860       PossibleValues
 0001:000114C0       Power
 0001:00010AE4       PropValueError
 0001:0001496C       psi
 0002:000018A0       psych
 0001:00012BA4       Psychometric
 0001:000066D0       PutExponent
 0001:00009500       RaiseAssertException
 0001:00010594       RaiseException
 0001:00000190       RaiseException
 0002:00001014       RaiseExceptionProc
 0001:0000A440       RaiseLastOSError
 0001:00010ACC       ReadError
 0001:00004808       ReadFile
 0002:00001824       RefAnyProc
 0001:00000240       RegCloseKey
 0002:00001864       RegGroups
 0001:00003E18       RegisterModule
 0001:00000248       RegOpenKeyEx
 0001:00000250       RegQueryValueEx
 0002:00000044       reMap
 0002:00001614       remBytes
 0001:00000414       RemoveBlock
 0001:0001099C       RemoveFixupReferences
 0001:00010A48       RemoveFixups
 0001:00003D5C       RemoveModuleUnloadProc
 0001:00003D34       RemoveModuleUnloadProc
 0001:00012F54       RemoveResult
 0001:00013F64       RescaleDist
 0001:00004810       ResetEvent
 0001:000013B0       ResizeInPlace
 0001:0000ECDC       ReturnAddr
 0001:0000F478       ReturnAddr
 0002:00001610       rover
 0001:0000DF34       RTLConsts
 0001:00000198       RtlUnwind
 0002:00001018       RTLUnwindProc
 0002:00000068       runErrMsg
 0001:000016E0       RunErrorAt
 0001:0000B2FC       SafeArrayCreate
 0001:0000B304       SafeArrayGetLBound
 0001:0000B30C       SafeArrayGetUBound
 0001:0000B314       SafeArrayPtrOfIndex
 0001:000059B0       SameText
 0001:00011B88       SaveEFile
 0001:0001174C       SavePFile
 0001:00008108       ScanBlanks
 0001:0000824C       ScanChar
 0001:000083C8       ScanDate
 0001:0000812C       ScanNumber
 0001:000081C0       ScanString
 0001:0000870C       ScanTime
 0001:000082D0       ScanToNumber
 0001:000147CC       SCCurrentEstimate
 0001:00014700       SCDistActive
 0001:00014728       SCEstimateTime
 0001:00014714       SCFinishDist
 0001:00014670       SCGetDebugLevel
 0001:000146F8       SCHighestActive
 0001:000147AC       SCNextTrial
 0001:00014828       SCPossibleValues
 0001:0001478C       SCRemoveResult
 0001:000147F0       SCRescaleDist
 0001:00014678       SCSavePFile
 0001:00014778       SCSetDebugLevel
 0001:0001468C       SCSetupDist
 0001:00014758       SCStoreResult
 0001:00000F5C       SearchSmallBlocks
 0001:0000D9F4       SetClearVarToEmptyParam
 0001:00012F44       SetDebugLevel
 0001:00004818       SetEndOfFile
 0001:00004820       SetEvent
 0001:000025E4       SetExceptionHandler
 0001:00004828       SetFilePointer
 0001:00001764       SetInOutRes
 0001:00004830       SetPriorityClass
 0001:00004838       SetThreadPriority
 0001:00011DCC       SetupDist
 0001:0000D9DC       SetVarAsError
 0002:00000150       ShareMode
 0002:00001694       ShortDateFormat
 0002:00001710       ShortDayNames
 0002:000016B0       ShortMonthNames
 0002:000016A8       ShortTimeFormat
 0001:00009100       ShowException
 0001:00010E30       SkipBinary
 0001:00010E60       SkipCollection
 0001:00010E08       SkipList
 0001:0000A438       Sleep
 0001:00004840       Sleep
 0002:0000161C       smallTab
 0002:000015E4       spaceRoot
 0001:00012D10       StoreResult
 0001:0000617C       StrAlloc
 0001:00009A94       StrByteType
 0001:00009C80       StrCharLength
 0001:00010458       StringListCompareStrings
 0001:0000609C       StrLCopy
 0001:00006074       StrLen
 0001:000065BC       StrLFmt
 0001:000060D0       StrLIComp
 0001:0000608C       StrMove
 0001:00006190       StrNew
 0001:00009CA0       StrNextChar
 0001:00006128       StrPos
 0001:00006114       StrScan
 0001:00005C34       StrToIntDef
 0002:00001858       SyncEvent
 0002:000003A0       SyncList
 0001:00000268       SysAllocStringLen
 0001:00004CC8       SysConst
 0001:000089C0       SysErrorMessage
 0001:0000120C       SysFreeMem
 0001:00000278       SysFreeString
 0001:0000107C       SysGetMem
 0001:000046D8       SysInit
 0002:00001748       SysLocale
 0001:0000158C       SysReallocMem
 0001:00000270       SysReAllocStringLen
 0001:00004440       System
 0001:0000ADE0       SysUtils
 0002:00001898       t
 0001:0000DA90       TCustomVariantType.BinaryOp
 0001:0000DA9C       TCustomVariantType.Cast
 0001:0000DAD4       TCustomVariantType.CastTo
 0001:0000DB60       TCustomVariantType.CastToOle
 0001:0000DB1C       TCustomVariantType.Compare
 0001:0000DB28       TCustomVariantType.CompareOp
 0001:0000DB9C       TCustomVariantType.Destroy
 0001:0000DC7C       TCustomVariantType.DispInvoke
 0001:0000DC28       TCustomVariantType.IsClear
 0001:0000DC2C       TCustomVariantType.LeftPromotion
 0001:0000DC40       TCustomVariantType.OlePromotion
 0001:0000DCA0       TCustomVariantType.QueryInterface
 0001:0000DC48       TCustomVariantType.RaiseCastError
 0001:0000DC58       TCustomVariantType.RaiseDispError
 0001:0000DC50       TCustomVariantType.RaiseInvalidOp
 0001:0000DC60       TCustomVariantType.RightPromotion
 0001:0000DC74       TCustomVariantType.UnaryOp
 0001:0000DC88       TCustomVariantType._AddRef
 0001:0000DC94       TCustomVariantType._Release
 0002:00000310       TerminateProcList
 0002:00001046       Test8086
 0001:00006F08       TextToFloat
 0001:00010814       TFileStream.Create
 0001:000107D0       TFileStream.Create
 0001:00010968       TFileStream.Destroy
 0001:0001070C       THandleStream.Create
 0001:00010748       THandleStream.Read
 0001:00010768       THandleStream.Seek
 0001:000107A8       THandleStream.SetSize
 0001:00010794       THandleStream.SetSize
 0001:00010758       THandleStream.Write
 0002:0000168E       ThousandSeparator
 0002:00001870       ThreadLock
 0002:000016A0       TimeAMString
 0002:000016A4       TimePMString
 0002:0000169C       TimeSeparator
 0001:000049A4       TimeStampCounter
 0001:00003EDC       TInterfacedObject.AfterConstruction
 0001:00003EE8       TInterfacedObject.BeforeDestruction
 0001:00003EF8       TInterfacedObject.NewInstance
 0001:00003F08       TInterfacedObject.QueryInterface
 0001:00003F30       TInterfacedObject._AddRef
 0001:00003F44       TInterfacedObject._Release
 0001:0000EC30       TList.Add
 0001:0000EC64       TList.Clear
 0001:0000EC7C       TList.Delete
 0001:0000EC10       TList.Destroy
 0001:0000ECE0       TList.Error
 0001:0000ED18       TList.Error
 0001:0000ED6C       TList.Get
 0001:0000ED94       TList.Grow
 0001:0000EE74       TList.Notify
 0001:0000EDC8       TList.SetCapacity
 0001:0000EE04       TList.SetCount
 0001:00004524       TlsAlloc
 0002:0000166C       tlsBuffer
 0001:0000452C       TlsFree
 0001:00004534       TlsGetValue
 0002:00000098       TlsIndex
 0002:FFBEA00C       TlsLast
 0002:000000B4       TlsProc
 0001:0000453C       TlsSetValue
 0001:0000A8AC       TMultiReadExclusiveWriteSynchronizer.BeginRead
 0001:0000A7C0       TMultiReadExclusiveWriteSynchronizer.BeginWrite
 0001:0000A77C       TMultiReadExclusiveWriteSynchronizer.BlockReaders
 0001:0000A6C0       TMultiReadExclusiveWriteSynchronizer.Create
 0001:0000A734       TMultiReadExclusiveWriteSynchronizer.Destroy
 0001:0000A918       TMultiReadExclusiveWriteSynchronizer.EndRead
 0001:0000A85C       TMultiReadExclusiveWriteSynchronizer.EndWrite
 0001:0000A794       TMultiReadExclusiveWriteSynchronizer.UnblockOneWriter
 0001:0000A788       TMultiReadExclusiveWriteSynchronizer.UnblockReaders
 0001:0000A7A0       TMultiReadExclusiveWriteSynchronizer.WaitForReadSignal
 0001:0000A7B0       TMultiReadExclusiveWriteSynchronizer.WaitForWriteSignal
 0001:000020E4       TObject.AfterConstruction
 0001:000020E8       TObject.BeforeDestruction
 0001:00001E44       TObject.ClassName
 0001:00001E58       TObject.ClassParent
 0001:00001E3C       TObject.ClassType
 0001:00001F30       TObject.CleanupInstance
 0001:00001E9C       TObject.Create
 0001:000020E0       TObject.DefaultHandler
 0001:00001EBC       TObject.Destroy
 0001:000020EC       TObject.Dispatch
 0001:00001ECC       TObject.Free
 0001:00001E80       TObject.FreeInstance
 0001:00001F80       TObject.GetInterface
 0001:00002014       TObject.GetInterfaceEntry
 0001:000020C4       TObject.InheritsFrom
 0001:00001ED8       TObject.InitInstance
 0001:00001E94       TObject.InstanceSize
 0001:00001E64       TObject.NewInstance
 0001:000020D8       TObject.SafeCallException
 0001:00003904       ToLongPath
 0001:0000EF94       TPersistent.Assign
 0001:0000EFA8       TPersistent.AssignError
 0001:0000F078       TPersistent.AssignTo
 0001:0000F080       TPersistent.DefineProperties
 0001:0000EF68       TPersistent.Destroy
 0001:0000F084       TPersistent.GetNamePath
 0001:0000F134       TPersistent.GetOwner
 0001:00008D44       TranslateDateFormat
 0001:0000BEA0       TranslateResult
 0001:00010AF0       TReader.CheckValue
 0001:00010B14       TReader.EndOfList
 0001:00010B28       TReader.NextValue
 0001:00010B38       TReader.Read
 0001:00010B84       TReader.ReadBuffer
 0001:00010BC0       TReader.ReadListBegin
 0001:00010BC8       TReader.ReadListEnd
 0001:00010BD0       TReader.ReadStr
 0001:00010C0C       TReader.ReadString
 0001:00010DAC       TReader.ReadValue
 0001:00010CC8       TReader.ReadWideString
 0001:000110A0       TReader.SkipBytes
 0001:00011058       TReader.SkipProperty
 0001:00010DC0       TReader.SkipSetBody
 0001:00010EBC       TReader.SkipValue
 0001:0000E90C       TRegGroup.Create
 0001:0000E988       TRegGroup.Destroy
 0001:0000E9E8       TRegGroup.UnregisterModuleClasses
 0001:0000EA8C       TRegGroups.Create
 0001:0000EB00       TRegGroups.Destroy
 0001:0000EB5C       TRegGroups.Lock
 0001:0000EB68       TRegGroups.Unlock
 0001:0000EB74       TRegGroups.UnregisterModuleClasses
 0001:00005A5C       Trim
 0002:00001790       TrueBoolStrs
 0001:000072B0       TryEncodeDate
 0001:000071A8       TryEncodeTime
 0001:00000F88       TryHarder
 0001:00005D38       TryStrToBool
 0001:00007148       TryStrToCurr
 0001:00008934       TryStrToDateTime
 0001:000070F0       TryStrToFloat
 0001:0000711C       TryStrToFloat
 0001:000070D4       TryStrToFloat
 0001:00005C4C       TryStrToInt
 0001:00008900       TryStrToTime
 0001:000104D0       TStream.GetPosition
 0001:000104F0       TStream.GetSize
 0001:00010664       TStream.Seek
 0001:000105E0       TStream.Seek
 0001:0001053C       TStream.SetSize
 0001:00010540       TStream.SetSize
 0001:000106D4       TStream.WriteBuffer
 0001:0000FEF8       TStringList.Add
 0001:0000FF04       TStringList.AddObject
 0001:0000FF68       TStringList.Changed
 0001:0000FF84       TStringList.Changing
 0001:0000FFA0       TStringList.Clear
 0001:000104B4       TStringList.CompareStrings
 0001:0001047C       TStringList.CustomSort
 0001:0000FFE0       TStringList.Delete
 0001:0000FE9C       TStringList.Destroy
 0001:0001004C       TStringList.Exchange
 0001:000100A8       TStringList.ExchangeItems
 0001:000100CC       TStringList.Find
 0001:00010144       TStringList.Get
 0001:00010178       TStringList.GetCapacity
 0001:0001017C       TStringList.GetCount
 0001:00010180       TStringList.GetObject
 0001:000101A8       TStringList.Grow
 0001:000101DC       TStringList.IndexOf
 0001:00010218       TStringList.Insert
 0001:0001027C       TStringList.InsertItem
 0001:00010228       TStringList.InsertObject
 0001:000102F4       TStringList.Put
 0001:00010350       TStringList.PutObject
 0001:00010390       TStringList.QuickSort
 0001:00010424       TStringList.SetCapacity
 0001:00010440       TStringList.SetUpdateState
 0001:0001046C       TStringList.Sort
 0001:0000F168       TStrings.Add
 0001:0000F18C       TStrings.AddObject
 0001:0000F1B0       TStrings.AddStrings
 0001:0000F268       TStrings.Assign
 0001:0000F300       TStrings.BeginUpdate
 0001:0000FE5C       TStrings.CompareStrings
 0001:0000F370       TStrings.DefineProperties
 0001:0000F138       TStrings.Destroy
 0001:0000F3BC       TStrings.EndUpdate
 0001:0000F3D0       TStrings.Equals
 0001:0000F47C       TStrings.Error
 0001:0000F4B4       TStrings.Error
 0001:0000F50C       TStrings.Exchange
 0001:0000F5F4       TStrings.GetCapacity
 0001:0000FE68       TStrings.GetNameValueSeparator
 0001:0000F5FC       TStrings.GetObject
 0001:0000F600       TStrings.GetText
 0001:0000F654       TStrings.GetTextStr
 0001:0000F77C       TStrings.IndexOf
 0001:0000F808       TStrings.IndexOfName
 0001:0000F8DC       TStrings.IndexOfObject
 0001:0000F910       TStrings.InsertObject
 0001:0000F940       TStrings.LoadFromFile
 0001:0000F994       TStrings.LoadFromStream
 0001:0000FA40       TStrings.Move
 0001:0000FAF0       TStrings.Put
 0001:0000FB24       TStrings.PutObject
 0001:0000FB28       TStrings.ReadData
 0001:0000FBD8       TStrings.SaveToFile
 0001:0000FC30       TStrings.SaveToStream
 0001:0000FC8C       TStrings.SetCapacity
 0001:0000FE80       TStrings.SetNameValueSeparator
 0001:0000FC90       TStrings.SetStringsAdapter
 0001:0000FCC4       TStrings.SetText
 0001:0000FD14       TStrings.SetTextStr
 0001:0000FDD4       TStrings.SetUpdateState
 0001:0000FDD8       TStrings.WriteData
 0001:0000EE78       TThreadList.Create
 0001:0000EECC       TThreadList.Destroy
 0001:0000EF48       TThreadList.LockList
 0001:0000EF5C       TThreadList.UnlockList
 0001:0000A670       TThreadLocalCounter.Delete
 0001:0000A590       TThreadLocalCounter.Destroy
 0001:0000A5E0       TThreadLocalCounter.HashIndex
 0001:0000A5F8       TThreadLocalCounter.Open
 0001:0000A680       TThreadLocalCounter.Recycle
 0002:000000E0       TwoDigitYearCenturyWindow
 0001:000110E8       TWriter.Write
 0001:00011134       TWriter.WriteBuffer
 0001:0001114C       TWriter.WriteListBegin
 0001:00011154       TWriter.WriteListEnd
 0001:0001115C       TWriter.WriteMinStr
 0001:000111F4       TWriter.WriteString
 0001:00011248       TWriter.WriteValue
 0001:00004710       Types
 0001:0000DFB8       TypInfo
 0001:000001A0       UnhandledExceptionFilter
 0001:00003F6C       UnicodeToUtf8
 0001:00000A54       UninitAllocator
 0001:0000AEE8       UniUnimplemented
 0001:00003E28       UnregisterModule
 0001:0000EBC4       UnRegisterModuleClasses
 0001:00002604       UnsetExceptionHandler
 0001:000058E4       UpperCase
 0002:000018A4       used
 0001:0000422C       UTF8Decode
 0001:00004180       UTF8Encode
 0001:00004048       Utf8ToUnicode
 0002:000017B8       VarAdd
 0002:00000010       VarAddRefProc
 0002:000017D0       VarAnd
 0001:0000C214       VarArrayClear
 0001:0000C4B4       VarArrayCopyForEach
 0001:0000BE4C       VarArrayCreateError
 0002:000017F4       VarBoolFromStr
 0002:00001800       VarBstrFromBool
 0002:000017F8       VarBstrFromCy
 0002:000017FC       VarBstrFromDate
 0001:0000BC6C       VarCastError
 0001:0000BCC0       VarCastError
 0001:0000C390       VarClearDeep
 0002:0000000C       VarClearProc
 0002:000017DC       VarCmp
 0001:0000C680       VarCopyCopyProc
 0001:0000C688       VarCopyDeep
 0002:00000014       VarCopyProc
 0002:000017F0       VarCyFromStr
 0002:000017EC       VarDateFromStr
 0002:00001818       VarDispProc
 0002:000017C4       VarDiv
 0002:000017E0       VarI4FromStr
 0001:0000AEB0       VariantChangeType
 0002:000017AC       VariantChangeTypeEx
 0001:0000AEA0       VariantClear
 0001:0000AEA8       VariantCopy
 0001:0000AE98       VariantInit
 0001:0000DDF8       Variants
 0002:000017C8       VarIDiv
 0001:0000BD5C       VarInvalidOp
 0002:000017CC       VarMod
 0002:000017C0       VarMul
 0002:000017B0       VarNeg
 0002:000017B4       VarNot
 0002:000017D4       VarOr
 0001:0000BDB0       VarOverflowError
 0002:000017E4       VarR4FromStr
 0002:000017E8       VarR8FromStr
 0001:0000C0F4       VarResultCheck
 0001:0000C100       VarResultCheck
 0002:000017BC       VarSub
 0001:0000C978       VarToLStrAny
 0001:0000C9DC       VarToLStrCustom
 0002:00000018       VarToLStrProc
 0001:0000C8AC       VarToLStrViaOS
 0001:0000D05C       VarToWStrAny
 0001:0000D0C0       VarToWStrCustom
 0002:0000001C       VarToWStrProc
 0001:0000CFA4       VarToWStrViaOS
 0001:0000D86C       VarTypeAsText
 0001:0000B684       VarUtils
 0002:000017D8       VarXor
 0001:00005C6C       VerifyBoolStrArray
 0001:000002D4       VirtualAlloc
 0001:000002DC       VirtualFree
 0001:00004848       VirtualQuery
 0001:00000260       VirtualQuery
 0001:00004850       WaitForSingleObject
 0001:00002B48       WCharFromChar
 0002:0000030C       WesternGroups
 0001:00000258       WideCharToMultiByte
 0002:000000D8       Win32BuildNumber
 0001:0000A4DC       Win32Check
 0002:000000DC       Win32CSDVersion
 0002:000000D0       Win32MajorVersion
 0002:000000D4       Win32MinorVersion
 0002:000000CC       Win32Platform
 0001:000048B8       Windows
 0001:0000288C       WriteErrorMessage
 0001:00004858       WriteFile
 0001:000001A8       WriteFile
 0001:00002FD8       WStrError
 0001:00002FF8       WStrSet


  Address         Publics by Value

 0002:FFBEA00C       TlsLast
 0001:00000188       GetStdHandle
 0001:00000190       RaiseException
 0001:00000198       RtlUnwind
 0001:000001A0       UnhandledExceptionFilter
 0001:000001A8       WriteFile
 0001:000001B0       CharNext
 0001:000001B8       ExitProcess
 0001:000001C0       MessageBox
 0001:000001C8       FindClose
 0001:000001D0       FindFirstFile
 0001:000001D8       FreeLibrary
 0001:000001E0       GetCommandLine
 0001:000001E8       GetLocaleInfo
 0001:000001F0       GetModuleFileName
 0001:000001F8       GetModuleHandle
 0001:00000200       GetProcAddress
 0001:00000208       GetStartupInfo
 0001:00000210       GetThreadLocale
 0001:00000218       LoadLibraryEx
 0001:00000220       LoadString
 0001:00000228       lstrcpyn
 0001:00000230       @strlen
 0001:00000238       MultiByteToWideChar
 0001:00000240       RegCloseKey
 0001:00000248       RegOpenKeyEx
 0001:00000250       RegQueryValueEx
 0001:00000258       WideCharToMultiByte
 0001:00000260       VirtualQuery
 0001:00000268       SysAllocStringLen
 0001:00000270       SysReAllocStringLen
 0001:00000278       SysFreeString
 0001:00000280       InterlockedIncrement
 0001:00000288       InterlockedDecrement
 0001:00000290       GetCurrentThreadId
 0001:00000298       GetVersion
 0001:000002A0       GetCmdShow
 0001:000002C4       LocalAlloc
 0001:000002CC       LocalFree
 0001:000002D4       VirtualAlloc
 0001:000002DC       VirtualFree
 0001:000002E4       InitializeCriticalSection
 0001:000002EC       EnterCriticalSection
 0001:000002F4       LeaveCriticalSection
 0001:000002FC       DeleteCriticalSection
 0001:00000304       GetBlockDesc
 0001:00000354       MakeEmpty
 0001:0000035C       AddBlockAfter
 0001:0000038C       DeleteBlock
 0001:000003A4       MergeBlockAfter
 0001:00000414       RemoveBlock
 0001:000004A8       GetSpace
 0001:0000050C       GetSpaceAt
 0001:00000584       FreeSpace
 0001:0000063C       Commit
 0001:000006D0       Decommit
 0001:00000750       GetCommitted
 0001:000007E0       GetCommittedAt
 0001:00000904       FreeCommitted
 0001:00000990       InitAllocator
 0001:00000A54       UninitAllocator
 0001:00000B34       DeleteFree
 0001:00000B98       FindCommitted
 0001:00000BC8       FillBeforeGap
 0001:00000BF8       InternalFreeMem
 0001:00000C1C       FillAfterGap
 0001:00000C44       FillerSizeBeforeGap
 0001:00000CB4       FillerSizeAfterGap
 0001:00000CEC       DecommitFree
 0001:00000D9C       InsertFree
 0001:00000E24       FreeCurAlloc
 0001:00000E70       MergeCommit
 0001:00000EFC       NewCommit
 0001:00000F28       NewCommitAt
 0001:00000F5C       SearchSmallBlocks
 0001:00000F88       TryHarder
 0001:0000107C       SysGetMem
 0001:0000120C       SysFreeMem
 0001:000013B0       ResizeInPlace
 0001:0000158C       SysReallocMem
 0001:00001650       @GetMem
 0001:00001670       @FreeMem
 0001:00001690       @ReallocMem
 0001:000016E0       RunErrorAt
 0001:000016EC       ErrorAt
 0001:00001738       Error
 0001:00001744       @_IOTest
 0001:00001764       SetInOutRes
 0001:00001774       @Copy
 0001:000017B8       IOResult
 0001:000017D8       Move
 0001:00001818       @EXP
 0001:00001830       @FRAC
 0001:00001854       @TRUNC
 0001:00001878       @AbstractError
 0001:00001894       InternalFlush
 0001:000018DC       Flush
 0001:000018E8       @Close
 0001:00001940       @FillChar
 0001:00001960       @ValLong
 0001:00001A34       @SetEq
 0001:00001A48       FPower10
 0001:00001A50       @Pow10
 0001:00001D34       GetKeyboardType
 0001:00001D3C       @isNECWindows
 0001:00001D6C       @FpuMaskInit
 0001:00001E30       @FpuInit
 0001:00001E3C       TObject.ClassType
 0001:00001E44       TObject.ClassName
 0001:00001E58       TObject.ClassParent
 0001:00001E64       TObject.NewInstance
 0001:00001E80       TObject.FreeInstance
 0001:00001E94       TObject.InstanceSize
 0001:00001E9C       TObject.Create
 0001:00001EBC       TObject.Destroy
 0001:00001ECC       TObject.Free
 0001:00001ED8       TObject.InitInstance
 0001:00001F30       TObject.CleanupInstance
 0001:00001F50       InvokeImplGetter
 0001:00001F80       TObject.GetInterface
 0001:00002014       TObject.GetInterfaceEntry
 0001:00002058       @IsClass
 0001:0000207C       GetDynaMethod
 0001:000020AC       @CallDynaInst
 0001:000020C4       TObject.InheritsFrom
 0001:000020D8       TObject.SafeCallException
 0001:000020E0       TObject.DefaultHandler
 0001:000020E4       TObject.AfterConstruction
 0001:000020E8       TObject.BeforeDestruction
 0001:000020EC       TObject.Dispatch
 0001:00002114       @ClassCreate
 0001:00002164       @ClassDestroy
 0001:0000216C       @AfterConstruction
 0001:0000217C       @BeforeDestruction
 0001:0000218C       NotifyReRaise
 0001:000021A8       NotifyNonDelphiException
 0001:000021CC       NotifyExcept
 0001:000021E4       NotifyAnyExcept
 0001:000021F8       CheckJmp
 0001:00002218       NotifyExceptFinally
 0001:00002240       NotifyTerminate
 0001:0000225C       NotifyUnhandled
 0001:0000227C       @HandleAnyException
 0001:000023A8       @HandleFinally
 0001:000023E0       @RaiseExcept
 0001:00002408       @RaiseAgain
 0001:0000245C       @DoneExcept
 0001:0000248C       @TryFinallyExit
 0001:000024A4       MapToRunError
 0001:00002544       @ExceptionHandler
 0001:000025E4       SetExceptionHandler
 0001:00002604       UnsetExceptionHandler
 0001:0000262C       FinalizeUnits
 0001:0000268C       InitUnits
 0001:000026EC       @StartLib
 0001:000027B4       @InitResStringImports
 0001:000027DC       @InitImports
 0001:00002800       MakeErrorMessage
 0001:0000285C       ExitDll
 0001:0000288C       WriteErrorMessage
 0001:00002918       @Halt0
 0001:000029F0       @Halt
 0001:000029FC       @RunError
 0001:00002A08       @LStrClr
 0001:00002A2C       @LStrArrayClr
 0001:00002A5C       @LStrAsg
 0001:00002AA0       @LStrLAsg
 0001:00002ACC       @NewAnsiString
 0001:00002AF8       @LStrFromPCharLen
 0001:00002B28       CharFromWChar
 0001:00002B48       WCharFromChar
 0001:00002B64       @LStrFromPWCharLen
 0001:00002BF0       @LStrFromChar
 0001:00002C00       @LStrFromPChar
 0001:00002C30       @LStrFromPWChar
 0001:00002C6C       @LStrFromString
 0001:00002C78       @LStrFromArray
 0001:00002C90       @LStrFromWStr
 0001:00002CA4       @LStrLen
 0001:00002CAC       @LStrCat
 0001:00002CF0       @LStrCat3
 0001:00002D64       @LStrCatN
 0001:00002DF0       @LStrCmp
 0001:00002E94       @LStrToPChar
 0001:00002EA0       InternalUniqueString
 0001:00002EE4       @UniqueStringA
 0001:00002EEC       @LStrCopy
 0001:00002F2C       @LStrPos
 0001:00002F74       @LStrSetLength
 0001:00002FD8       WStrError
 0001:00002FE0       @NewWideString
 0001:00002FF8       WStrSet
 0001:00003008       @WStrClr
 0001:00003020       @WStrArrayClr
 0001:00003044       @WStrAsg
 0001:00003068       @WStrFromPCharLen
 0001:000030F4       @WStrFromPWCharLen
 0001:00003118       @WStrFromPWChar
 0001:00003154       @WStrFromLStr
 0001:00003164       @WStrToPWChar
 0001:00003174       @WStrLen
 0001:00003180       @WStrCmp
 0001:00003204       @WStrCopy
 0001:00003250       @WStrSetLength
 0001:00003294       @FinalizeRecord
 0001:000032C8       @VarClr
 0001:000032E0       @FinalizeArray
 0001:000033CC       @Finalize
 0001:000033D8       @VarCopy
 0001:000033F0       @CopyRecord
 0001:0000350C       @CopyArray
 0001:00003600       @DispCallByIDError
 0001:00003608       @_llmul
 0001:0000362C       @DynArrayLength
 0001:00003634       @DynArrayHigh
 0001:0000363C       CopyArray
 0001:0000364C       FinalizeArray
 0001:00003654       DynArrayClear
 0001:0000365C       DynArraySetLength
 0001:000037E8       @DynArraySetLength
 0001:000037F4       @DynArrayClear
 0001:00003830       @DynArrayAsg
 0001:00003858       FindHInstance
 0001:00003880       DelayLoadResourceModule
 0001:000038C8       FindResourceHInstance
 0001:000038F0       FindBS
 0001:00003904       ToLongPath
 0001:00003ABC       LoadResourceModule
 0001:00003D2C       AddModuleUnloadProc
 0001:00003D34       RemoveModuleUnloadProc
 0001:00003D3C       AddModuleUnloadProc
 0001:00003D5C       RemoveModuleUnloadProc
 0001:00003DBC       NotifyModuleUnload
 0001:00003E18       RegisterModule
 0001:00003E28       UnregisterModule
 0001:00003E98       @IntfClear
 0001:00003EB0       @IntfCopy
 0001:00003EDC       TInterfacedObject.AfterConstruction
 0001:00003EE8       TInterfacedObject.BeforeDestruction
 0001:00003EF8       TInterfacedObject.NewInstance
 0001:00003F08       TInterfacedObject.QueryInterface
 0001:00003F30       TInterfacedObject._AddRef
 0001:00003F44       TInterfacedObject._Release
 0001:00003F6C       UnicodeToUtf8
 0001:00004048       Utf8ToUnicode
 0001:00004180       UTF8Encode
 0001:0000422C       UTF8Decode
 0001:000042D0       AnsiToUtf8
 0001:00004320       LoadResString
 0001:00004378       LCIDToCodePage
 0001:000043EC       Finalization
 0001:00004440       System
 0001:00004514       LocalAlloc
 0001:0000451C       LocalFree
 0001:00004524       TlsAlloc
 0001:0000452C       TlsFree
 0001:00004534       TlsGetValue
 0001:0000453C       TlsSetValue
 0001:00004544       AllocTlsBuffer
 0001:00004550       GetTlsSize
 0001:00004558       InitThreadTLS
 0001:0000459C       InitProcessTLS
 0001:000045C8       ExitThreadTLS
 0001:000045F0       ExitProcessTLS
 0001:00004614       @GetTls
 0001:00004654       InitializeModule
 0001:00004660       @InitLib
 0001:000046A8       Finalization
 0001:000046D8       SysInit
 0001:000046E0       Finalization
 0001:00004710       Types
 0001:00004718       CloseHandle
 0001:00004720       CompareString
 0001:00004728       CreateEvent
 0001:00004730       CreateFile
 0001:00004738       DeleteCriticalSection
 0001:00004740       EnterCriticalSection
 0001:00004748       EnumCalendarInfoA
 0001:00004750       FormatMessage
 0001:00004758       GetACP
 0001:00004760       GetCPInfo
 0001:00004768       GetCurrentProcess
 0001:00004770       GetCurrentThread
 0001:00004778       GetCurrentThreadId
 0001:00004780       GetDateFormat
 0001:00004788       GetDiskFreeSpaceA
 0001:00004790       GetFullPathName
 0001:00004798       GetLastError
 0001:000047A0       GetLocalTime
 0001:000047A8       GetLocaleInfo
 0001:000047B0       GetModuleFileName
 0001:000047B8       GetModuleHandle
 0001:000047C0       GetPriorityClass
 0001:000047C8       GetProcAddress
 0001:000047D0       GetStdHandle
 0001:000047D8       GetStringTypeEx
 0001:000047E0       GetThreadLocale
 0001:000047E8       GetThreadPriority
 0001:000047F0       GetVersionEx
 0001:000047F8       InitializeCriticalSection
 0001:00004800       LeaveCriticalSection
 0001:00004808       ReadFile
 0001:00004810       ResetEvent
 0001:00004818       SetEndOfFile
 0001:00004820       SetEvent
 0001:00004828       SetFilePointer
 0001:00004830       SetPriorityClass
 0001:00004838       SetThreadPriority
 0001:00004840       Sleep
 0001:00004848       VirtualQuery
 0001:00004850       WaitForSingleObject
 0001:00004858       WriteFile
 0001:00004860       CharNext
 0001:00004868       CharToOemA
 0001:00004870       GetSystemMetrics
 0001:00004878       LoadString
 0001:00004880       MessageBox
 0001:00004888       Finalization
 0001:000048B8       Windows
 0001:000048C0       GetTSC
 0001:000048C4       CalibrateTSC
 0001:00004974       Finalization
 0001:000049A4       TimeStampCounter
 0001:00004C98       Finalization
 0001:00004CC8       SysConst
 0001:0000586C       DivMod
 0001:00005888       ConvertError
 0001:000058A0       ConvertErrorFmt
 0001:000058C4       AllocMem
 0001:000058E4       UpperCase
 0001:00005920       LowerCase
 0001:0000595C       CompareText
 0001:000059B0       SameText
 0001:000059D4       AnsiCompareStr
 0001:00005A0C       AnsiCompareText
 0001:00005A44       AnsiSameText
 0001:00005A5C       Trim
 0001:00005AAC       CvtInt
 0001:00005AF8       IntToStr
 0001:00005B18       CvtInt64
 0001:00005BE4       IntToStr
 0001:00005C0C       IntToHex
 0001:00005C34       StrToIntDef
 0001:00005C4C       TryStrToInt
 0001:00005C6C       VerifyBoolStrArray
 0001:00005CFC       CompareWith
 0001:00005D38       TryStrToBool
 0001:00005DD4       BoolToStr
 0001:00005E20       FileOpen
 0001:00005E78       FileCreate
 0001:00005E9C       FileCreate
 0001:00005EA4       FileRead
 0001:00005ED0       FileWrite
 0001:00005EFC       FileSeek
 0001:00005F34       FileClose
 0001:00005F3C       LastDelimiter
 0001:00005F8C       ExtractFileName
 0001:00005FC4       ExpandFileName
 0001:00006000       BackfillGetDiskFreeSpaceEx
 0001:00006074       StrLen
 0001:0000608C       StrMove
 0001:0000609C       StrLCopy
 0001:000060D0       StrLIComp
 0001:00006114       StrScan
 0001:00006128       StrPos
 0001:0000617C       StrAlloc
 0001:00006190       StrNew
 0001:000061BC       FormatError
 0001:00006214       FormatVarToStr
 0001:00006238       FormatClearStr
 0001:00006244       FormatBuf
 0001:000065BC       StrLFmt
 0001:000065FC       Format
 0001:00006610       FmtStr
 0001:000066D0       PutExponent
 0001:00006714       FloatToText
 0001:000069E8       FloatToTextFmt
 0001:00006CDC       FloatToDecimal
 0001:00006F08       TextToFloat
 0001:0000701C       FloatToStr
 0001:0000704C       CurrToStr
 0001:0000707C       FormatFloat
 0001:000070D4       TryStrToFloat
 0001:000070F0       TryStrToFloat
 0001:0000711C       TryStrToFloat
 0001:00007148       TryStrToCurr
 0001:00007164       DateTimeToTimeStamp
 0001:000071A8       TryEncodeTime
 0001:00007218       DecodeTime
 0001:00007274       IsLeapYear
 0001:000072B0       TryEncodeDate
 0001:00007378       DecodeDateFully
 0001:000074C4       DecodeDate
 0001:000074E4       DayOfWeek
 0001:0000750C       CurrentYear
 0001:00007520       AppendChars
 0001:00007564       AppendString
 0001:00007584       AppendNumber
 0001:000075D0       GetCount
 0001:000075FC       GetDate
 0001:00007634       GetTime
 0001:00007674       ConvertEraString
 0001:000077DC       ConvertYearString
 0001:000078E4       AppendFormat
 0001:00008098       DateTimeToString
 0001:000080F4       DateTimeToStr
 0001:00008108       ScanBlanks
 0001:0000812C       ScanNumber
 0001:000081C0       ScanString
 0001:0000824C       ScanChar
 0001:00008284       GetDateOrder
 0001:000082D0       ScanToNumber
 0001:00008318       GetEraYearOffset
 0001:0000836C       EraToYear
 0001:000083C8       ScanDate
 0001:0000870C       ScanTime
 0001:00008900       TryStrToTime
 0001:00008934       TryStrToDateTime
 0001:000089C0       SysErrorMessage
 0001:00008A0C       GetLocaleStr
 0001:00008A58       GetLocaleChar
 0001:00008A80       LocalGetLocaleStr
 0001:00008ABC       GetMonthDayNames
 0001:00008BE0       EnumEraNames
 0001:00008C1C       EnumEraYearOffsets
 0001:00008C94       GetEraNamesAndYearOffsets
 0001:00008D44       TranslateDateFormat
 0001:00008F6C       ConvertAddr
 0001:00008F78       ExceptionErrorMessage
 0001:00009100       ShowException
 0001:000091C8       Exception.Create
 0001:00009204       Exception.CreateFmt
 0001:00009284       Exception.CreateRes
 0001:000092C0       Exception.CreateResFmt
 0001:00009354       EHeapException.FreeInstance
 0001:00009380       CreateInOutError
 0001:00009400       ErrorHandler
 0001:00009454       CreateAssertException
 0001:00009500       RaiseAssertException
 0001:00009510       AssertErrorHandler
 0001:0000952C       AbstractErrorHandler
 0001:00009544       MapException
 0001:000095C4       GetExceptionClass
 0001:000095DC       CreateAVObject
 0001:000097A8       GetExceptionObject
 0001:00009874       ExceptHandler
 0001:00009884       InitExceptions
 0001:00009908       DoneExceptions
 0001:00009988       InitPlatformId
 0001:000099F8       ByteTypeTest
 0001:00009A70       ByteType
 0001:00009A94       StrByteType
 0001:00009AAC       ByteToCharLen
 0001:00009AD4       ByteToCharIndex
 0001:00009B2C       CountChars
 0001:00009BBC       CharToByteIndex
 0001:00009C20       CharToByteLen
 0001:00009C80       StrCharLength
 0001:00009CA0       StrNextChar
 0001:00009CA8       CharLength
 0001:00009CE4       NextCharIndex
 0001:00009D20       AnsiPos
 0001:00009D58       AnsiStrPos
 0001:00009DF8       AnsiStrRScan
 0001:00009E20       AnsiStrScan
 0001:00009E60       LCIDToCodePage
 0001:00009ED4       InitLeadBytes
 0001:00009F34       IsWesternGroup
 0001:00009F4C       InitSysLocale
 0001:0000A0C0       GetFormatSettings
 0001:0000A438       Sleep
 0001:0000A440       RaiseLastOSError
 0001:0000A4DC       Win32Check
 0001:0000A4EC       FreeTerminateProcs
 0001:0000A50C       InitDriveSpacePtr
 0001:0000A568       InterlockedIncrement
 0001:0000A574       InterlockedDecrement
 0001:0000A580       InterlockedExchange
 0001:0000A588       InterlockedExchangeAdd
 0001:0000A590       TThreadLocalCounter.Destroy
 0001:0000A5E0       TThreadLocalCounter.HashIndex
 0001:0000A5F8       TThreadLocalCounter.Open
 0001:0000A670       TThreadLocalCounter.Delete
 0001:0000A680       TThreadLocalCounter.Recycle
 0001:0000A6C0       TMultiReadExclusiveWriteSynchronizer.Create
 0001:0000A734       TMultiReadExclusiveWriteSynchronizer.Destroy
 0001:0000A77C       TMultiReadExclusiveWriteSynchronizer.BlockReaders
 0001:0000A788       TMultiReadExclusiveWriteSynchronizer.UnblockReaders
 0001:0000A794       TMultiReadExclusiveWriteSynchronizer.UnblockOneWriter
 0001:0000A7A0       TMultiReadExclusiveWriteSynchronizer.WaitForReadSignal
 0001:0000A7B0       TMultiReadExclusiveWriteSynchronizer.WaitForWriteSignal
 0001:0000A7C0       TMultiReadExclusiveWriteSynchronizer.BeginWrite
 0001:0000A85C       TMultiReadExclusiveWriteSynchronizer.EndWrite
 0001:0000A8AC       TMultiReadExclusiveWriteSynchronizer.BeginRead
 0001:0000A918       TMultiReadExclusiveWriteSynchronizer.EndRead
 0001:0000A980       FreeAndNil
 0001:0000AC60       Finalization
 0001:0000ADE0       SysUtils
 0001:0000AE60       Finalization
 0001:0000AE90       Messages
 0001:0000AE98       VariantInit
 0001:0000AEA0       VariantClear
 0001:0000AEA8       VariantCopy
 0001:0000AEB0       VariantChangeType
 0001:0000AEB8       BackupVariantChangeTypeEx
 0001:0000AEE8       UniUnimplemented
 0001:0000AEF4       BiUnimplemented
 0001:0000AF00       CmpUnimplemented
 0001:0000AF0C       BackupVarI4FromStr
 0001:0000AF78       BackupVarR4FromStr
 0001:0000AFE4       BackupVarR8FromStr
 0001:0000B050       BackupVarDateFromStr
 0001:0000B0BC       BackupVarCyFromStr
 0001:0000B128       BackupVarBoolFromStr
 0001:0000B1A8       BackupVarBStrFromCy
 0001:0000B218       BackupVarBStrFromDate
 0001:0000B288       BackupVarBStrFromBool
 0001:0000B2FC       SafeArrayCreate
 0001:0000B304       SafeArrayGetLBound
 0001:0000B30C       SafeArrayGetUBound
 0001:0000B314       SafeArrayPtrOfIndex
 0001:0000B31C       FindProc
 0001:0000B348       InitializeVarUtils
 0001:0000B654       Finalization
 0001:0000B684       VarUtils
 0001:0000BC6C       VarCastError
 0001:0000BCC0       VarCastError
 0001:0000BD5C       VarInvalidOp
 0001:0000BDB0       VarOverflowError
 0001:0000BE4C       VarArrayCreateError
 0001:0000BEA0       TranslateResult
 0001:0000C0F4       VarResultCheck
 0001:0000C100       VarResultCheck
 0001:0000C134       @DispInvokeError
 0001:0000C188       InBounds
 0001:0000C1B8       Increment
 0001:0000C214       VarArrayClear
 0001:0000C390       VarClearDeep
 0001:0000C40C       @VarClear
 0001:0000C420       @VarClr
 0001:0000C428       InBounds
 0001:0000C458       Increment
 0001:0000C4B4       VarArrayCopyForEach
 0001:0000C680       VarCopyCopyProc
 0001:0000C688       VarCopyDeep
 0001:0000C734       @VarCopy
 0001:0000C778       CurrToWStrViaOS
 0001:0000C7B0       DateToWStrViaOS
 0001:0000C7E8       BoolToWStrViaOS
 0001:0000C8AC       VarToLStrViaOS
 0001:0000C978       VarToLStrAny
 0001:0000C9DC       VarToLStrCustom
 0001:0000CA60       @VarToLStr
 0001:0000CFA4       VarToWStrViaOS
 0001:0000D05C       VarToWStrAny
 0001:0000D0C0       VarToWStrCustom
 0001:0000D188       @VarToWStr
 0001:0000D6E8       @VarAddRef
 0001:0000D86C       VarTypeAsText
 0001:0000D9DC       SetVarAsError
 0001:0000D9F4       SetClearVarToEmptyParam
 0001:0000DA24       ClearVariantTypeList
 0001:0000DA90       TCustomVariantType.BinaryOp
 0001:0000DA9C       TCustomVariantType.Cast
 0001:0000DAD4       TCustomVariantType.CastTo
 0001:0000DB1C       TCustomVariantType.Compare
 0001:0000DB28       TCustomVariantType.CompareOp
 0001:0000DB60       TCustomVariantType.CastToOle
 0001:0000DB9C       TCustomVariantType.Destroy
 0001:0000DC28       TCustomVariantType.IsClear
 0001:0000DC2C       TCustomVariantType.LeftPromotion
 0001:0000DC40       TCustomVariantType.OlePromotion
 0001:0000DC48       TCustomVariantType.RaiseCastError
 0001:0000DC50       TCustomVariantType.RaiseInvalidOp
 0001:0000DC58       TCustomVariantType.RaiseDispError
 0001:0000DC60       TCustomVariantType.RightPromotion
 0001:0000DC74       TCustomVariantType.UnaryOp
 0001:0000DC7C       TCustomVariantType.DispInvoke
 0001:0000DC88       TCustomVariantType._AddRef
 0001:0000DC94       TCustomVariantType._Release
 0001:0000DCA0       TCustomVariantType.QueryInterface
 0001:0000DCC8       FindCustomVariantType
 0001:0000DD80       Finalization
 0001:0000DDF8       Variants
 0001:0000DF04       Finalization
 0001:0000DF34       RTLConsts
 0001:0000DF68       Finalization
 0001:0000DFB8       TypInfo
 0001:0000DFC0       Finalization
 0001:0000DFF0       ActiveX
 0001:0000E90C       TRegGroup.Create
 0001:0000E988       TRegGroup.Destroy
 0001:0000E9C8       PointerInModule
 0001:0000E9E8       TRegGroup.UnregisterModuleClasses
 0001:0000EA8C       TRegGroups.Create
 0001:0000EB00       TRegGroups.Destroy
 0001:0000EB5C       TRegGroups.Lock
 0001:0000EB68       TRegGroups.Unlock
 0001:0000EB74       TRegGroups.UnregisterModuleClasses
 0001:0000EBC4       UnRegisterModuleClasses
 0001:0000EC10       TList.Destroy
 0001:0000EC30       TList.Add
 0001:0000EC64       TList.Clear
 0001:0000EC7C       TList.Delete
 0001:0000ECDC       ReturnAddr
 0001:0000ECE0       TList.Error
 0001:0000ED18       TList.Error
 0001:0000ED6C       TList.Get
 0001:0000ED94       TList.Grow
 0001:0000EDC8       TList.SetCapacity
 0001:0000EE04       TList.SetCount
 0001:0000EE74       TList.Notify
 0001:0000EE78       TThreadList.Create
 0001:0000EECC       TThreadList.Destroy
 0001:0000EF48       TThreadList.LockList
 0001:0000EF5C       TThreadList.UnlockList
 0001:0000EF68       TPersistent.Destroy
 0001:0000EF94       TPersistent.Assign
 0001:0000EFA8       TPersistent.AssignError
 0001:0000F078       TPersistent.AssignTo
 0001:0000F080       TPersistent.DefineProperties
 0001:0000F084       TPersistent.GetNamePath
 0001:0000F134       TPersistent.GetOwner
 0001:0000F138       TStrings.Destroy
 0001:0000F168       TStrings.Add
 0001:0000F18C       TStrings.AddObject
 0001:0000F1B0       TStrings.AddStrings
 0001:0000F268       TStrings.Assign
 0001:0000F300       TStrings.BeginUpdate
 0001:0000F318       DoWrite
 0001:0000F370       TStrings.DefineProperties
 0001:0000F3BC       TStrings.EndUpdate
 0001:0000F3D0       TStrings.Equals
 0001:0000F478       ReturnAddr
 0001:0000F47C       TStrings.Error
 0001:0000F4B4       TStrings.Error
 0001:0000F50C       TStrings.Exchange
 0001:0000F5F4       TStrings.GetCapacity
 0001:0000F5FC       TStrings.GetObject
 0001:0000F600       TStrings.GetText
 0001:0000F654       TStrings.GetTextStr
 0001:0000F77C       TStrings.IndexOf
 0001:0000F808       TStrings.IndexOfName
 0001:0000F8DC       TStrings.IndexOfObject
 0001:0000F910       TStrings.InsertObject
 0001:0000F940       TStrings.LoadFromFile
 0001:0000F994       TStrings.LoadFromStream
 0001:0000FA40       TStrings.Move
 0001:0000FAF0       TStrings.Put
 0001:0000FB24       TStrings.PutObject
 0001:0000FB28       TStrings.ReadData
 0001:0000FBD8       TStrings.SaveToFile
 0001:0000FC30       TStrings.SaveToStream
 0001:0000FC8C       TStrings.SetCapacity
 0001:0000FC90       TStrings.SetStringsAdapter
 0001:0000FCC4       TStrings.SetText
 0001:0000FD14       TStrings.SetTextStr
 0001:0000FDD4       TStrings.SetUpdateState
 0001:0000FDD8       TStrings.WriteData
 0001:0000FE5C       TStrings.CompareStrings
 0001:0000FE68       TStrings.GetNameValueSeparator
 0001:0000FE80       TStrings.SetNameValueSeparator
 0001:0000FE9C       TStringList.Destroy
 0001:0000FEF8       TStringList.Add
 0001:0000FF04       TStringList.AddObject
 0001:0000FF68       TStringList.Changed
 0001:0000FF84       TStringList.Changing
 0001:0000FFA0       TStringList.Clear
 0001:0000FFE0       TStringList.Delete
 0001:0001004C       TStringList.Exchange
 0001:000100A8       TStringList.ExchangeItems
 0001:000100CC       TStringList.Find
 0001:00010144       TStringList.Get
 0001:00010178       TStringList.GetCapacity
 0001:0001017C       TStringList.GetCount
 0001:00010180       TStringList.GetObject
 0001:000101A8       TStringList.Grow
 0001:000101DC       TStringList.IndexOf
 0001:00010218       TStringList.Insert
 0001:00010228       TStringList.InsertObject
 0001:0001027C       TStringList.InsertItem
 0001:000102F4       TStringList.Put
 0001:00010350       TStringList.PutObject
 0001:00010390       TStringList.QuickSort
 0001:00010424       TStringList.SetCapacity
 0001:00010440       TStringList.SetUpdateState
 0001:00010458       StringListCompareStrings
 0001:0001046C       TStringList.Sort
 0001:0001047C       TStringList.CustomSort
 0001:000104B4       TStringList.CompareStrings
 0001:000104D0       TStream.GetPosition
 0001:000104F0       TStream.GetSize
 0001:0001053C       TStream.SetSize
 0001:00010540       TStream.SetSize
 0001:00010594       RaiseException
 0001:000105E0       TStream.Seek
 0001:00010664       TStream.Seek
 0001:000106D4       TStream.WriteBuffer
 0001:0001070C       THandleStream.Create
 0001:00010748       THandleStream.Read
 0001:00010758       THandleStream.Write
 0001:00010768       THandleStream.Seek
 0001:00010794       THandleStream.SetSize
 0001:000107A8       THandleStream.SetSize
 0001:000107D0       TFileStream.Create
 0001:00010814       TFileStream.Create
 0001:00010968       TFileStream.Destroy
 0001:0001099C       RemoveFixupReferences
 0001:00010A48       RemoveFixups
 0001:00010ACC       ReadError
 0001:00010AE4       PropValueError
 0001:00010AF0       TReader.CheckValue
 0001:00010B14       TReader.EndOfList
 0001:00010B28       TReader.NextValue
 0001:00010B38       TReader.Read
 0001:00010B84       TReader.ReadBuffer
 0001:00010BC0       TReader.ReadListBegin
 0001:00010BC8       TReader.ReadListEnd
 0001:00010BD0       TReader.ReadStr
 0001:00010C0C       TReader.ReadString
 0001:00010CC8       TReader.ReadWideString
 0001:00010DAC       TReader.ReadValue
 0001:00010DC0       TReader.SkipSetBody
 0001:00010E08       SkipList
 0001:00010E30       SkipBinary
 0001:00010E60       SkipCollection
 0001:00010EBC       TReader.SkipValue
 0001:00011058       TReader.SkipProperty
 0001:000110A0       TReader.SkipBytes
 0001:000110E8       TWriter.Write
 0001:00011134       TWriter.WriteBuffer
 0001:0001114C       TWriter.WriteListBegin
 0001:00011154       TWriter.WriteListEnd
 0001:0001115C       TWriter.WriteMinStr
 0001:000111F4       TWriter.WriteString
 0001:00011248       TWriter.WriteValue
 0001:0001125C       InitThreadSynchronization
 0001:00011290       DoneThreadSynchronization
 0001:000112A8       FreeIntConstList
 0001:00011314       ModuleUnload
 0001:0001131C       Finalization
 0001:000113CC       Classes
 0001:00011460       IntPower
 0001:00011490       Floor
 0001:000114C0       Power
 0001:00011588       Max
 0001:000115D0       Finalization
 0001:00011600       Math
 0001:00011744       GetDebugLevel
 0001:0001174C       SavePFile
 0001:00011B88       SaveEFile
 0001:00011DCC       SetupDist
 0001:000125E4       HighestActive
 0001:000125F0       Normalize
 0001:00012738       DistActive
 0001:00012764       FinishDist
 0001:00012A98       EstimateTime
 0001:00012BA4       Psychometric
 0001:00012D10       StoreResult
 0001:00012F44       SetDebugLevel
 0001:00012F54       RemoveResult
 0001:000131C8       NextTrial
 0001:00013860       PossibleValues
 0001:0001393C       CurrentEstimate
 0001:00013F64       RescaleDist
 0001:00014670       SCGetDebugLevel
 0001:00014678       SCSavePFile
 0001:0001468C       SCSetupDist
 0001:000146F8       SCHighestActive
 0001:00014700       SCDistActive
 0001:00014714       SCFinishDist
 0001:00014728       SCEstimateTime
 0001:00014758       SCStoreResult
 0001:00014778       SCSetDebugLevel
 0001:0001478C       SCRemoveResult
 0001:000147AC       SCNextTrial
 0001:000147CC       SCCurrentEstimate
 0001:000147F0       SCRescaleDist
 0001:00014828       SCPossibleValues
 0001:0001484C       Finalization
 0001:0001496C       psi
 0002:00000000       ExitCode
 0002:00000004       ErrorAddr
 0002:00000008       FileMode
 0002:0000000C       VarClearProc
 0002:00000010       VarAddRefProc
 0002:00000014       VarCopyProc
 0002:00000018       VarToLStrProc
 0002:0000001C       VarToWStrProc
 0002:00000020       Default8087CW
 0002:00000024       DebugHook
 0002:00000028       JITEnable
 0002:0000002C       NoErrMsg
 0002:00000030       LibModuleList
 0002:00000034       ModuleUnloadList
 0002:00000038       MemoryManager
 0002:00000044       reMap
 0002:00000060       errCaption
 0002:00000068       runErrMsg
 0002:00000088       dig
 0002:00000098       TlsIndex
 0002:0000009C       Module
 0002:000000B4       TlsProc
 0002:000000C4       EmptyStr
 0002:000000C8       EmptyWideStr
 0002:000000CC       Win32Platform
 0002:000000D0       Win32MajorVersion
 0002:000000D4       Win32MinorVersion
 0002:000000D8       Win32BuildNumber
 0002:000000DC       Win32CSDVersion
 0002:000000E0       TwoDigitYearCenturyWindow
 0002:000000E4       MonthDays
 0002:00000114       LeadBytes
 0002:00000134       HexDisplayPrefix
 0002:00000138       GetDiskFreeSpaceEx
 0002:0000013C       cSimpleBoolStrs
 0002:00000144       AccessMode
 0002:00000150       ShareMode
 0002:00000164       FormatErrorStrs
 0002:0000016C       FCon1E18
 0002:00000178       DCon10
 0002:0000017C       CWNear
 0002:00000180       FMSecsPerDay
 0002:00000184       IMSecsPerDay
 0002:00000188       Format
 0002:0000018C       DefShortMonthNames
 0002:000001BC       DefLongMonthNames
 0002:000001EC       DefShortDayNames
 0002:00000208       DefLongDayNames
 0002:00000224       ErrorMap
 0002:0000025C       ExceptMap
 0002:0000030C       WesternGroups
 0002:00000310       TerminateProcList
 0002:00000314       CResult
 0002:0000031C       NullStrictConvert
 0002:00000320       NullAsStringValue
 0002:00000324       BooleanToStringRule
 0002:00000328       CInvalidCustomVariantType
 0002:0000032C       CText
 0002:00000380       CRelationshipToBoolean
 0002:00000394       BooleanIdents
 0002:0000039C       DotSep
 0002:000003A0       SyncList
 0002:000003A4       DebugLevel
 0002:000003A8       DTC
 0002:00001000       DispCallByIDProc
 0002:00001004       ExceptProc
 0002:00001008       ErrorProc
 0002:0000100C       ExceptClsProc
 0002:00001010       ExceptObjProc
 0002:00001014       RaiseExceptionProc
 0002:00001018       RTLUnwindProc
 0002:0000101C       ExceptionClass
 0002:00001020       AssertErrorProc
 0002:00001024       ExitProcessProc
 0002:00001028       AbstractErrorProc
 0002:0000102C       MainInstance
 0002:00001030       MainThreadID
 0002:00001034       IsLibrary
 0002:00001038       CmdShow
 0002:0000103C       CmdLine
 0002:00001040       ExitProc
 0002:00001044       IsConsole
 0002:00001045       IsMultiThread
 0002:00001046       Test8086
 0002:00001048       Input
 0002:00001214       Output
 0002:000013E0       ErrOutput
 0002:000015AC       AllocMemCount
 0002:000015B0       AllocMemSize
 0002:000015B4       .5
 0002:000015B8       DefaultUserCodePage
 0002:000015BC       initialized
 0002:000015C0       heapErrorCode
 0002:000015C4       heapLock
 0002:000015DC       blockDescBlockList
 0002:000015E0       blockDescFreeList
 0002:000015E4       spaceRoot
 0002:000015F4       decommittedRoot
 0002:00001604       avail
 0002:00001610       rover
 0002:00001614       remBytes
 0002:00001618       curAlloc
 0002:0000161C       smallTab
 0002:00001620       committedRoot
 0002:00001630       InitContext
 0002:0000165C       ModuleIsLib
 0002:0000165D       ModuleIsCpp
 0002:00001660       HInstance
 0002:00001664       DllProc
 0002:00001668       .1
 0002:0000166C       tlsBuffer
 0002:00001670       .1
 0002:00001674       .3
 0002:00001678       CPUSpeed
 0002:00001680       .1
 0002:00001684       .1
 0002:00001688       CurrencyString
 0002:0000168C       CurrencyFormat
 0002:0000168D       NegCurrFormat
 0002:0000168E       ThousandSeparator
 0002:0000168F       DecimalSeparator
 0002:00001690       CurrencyDecimals
 0002:00001691       DateSeparator
 0002:00001694       ShortDateFormat
 0002:00001698       LongDateFormat
 0002:0000169C       TimeSeparator
 0002:000016A0       TimeAMString
 0002:000016A4       TimePMString
 0002:000016A8       ShortTimeFormat
 0002:000016AC       LongTimeFormat
 0002:000016B0       ShortMonthNames
 0002:000016E0       LongMonthNames
 0002:00001710       ShortDayNames
 0002:0000172C       LongDayNames
 0002:00001748       SysLocale
 0002:00001756       ListSeparator
 0002:00001758       EraNames
 0002:00001774       EraYearOffsets
 0002:00001790       TrueBoolStrs
 0002:00001794       FalseBoolStrs
 0002:00001798       .35
 0002:0000179C       OutOfMemory
 0002:000017A0       InvalidPointer
 0002:000017A4       FLanguages
 0002:000017A8       .1
 0002:000017AC       VariantChangeTypeEx
 0002:000017B0       VarNeg
 0002:000017B4       VarNot
 0002:000017B8       VarAdd
 0002:000017BC       VarSub
 0002:000017C0       VarMul
 0002:000017C4       VarDiv
 0002:000017C8       VarIDiv
 0002:000017CC       VarMod
 0002:000017D0       VarAnd
 0002:000017D4       VarOr
 0002:000017D8       VarXor
 0002:000017DC       VarCmp
 0002:000017E0       VarI4FromStr
 0002:000017E4       VarR4FromStr
 0002:000017E8       VarR8FromStr
 0002:000017EC       VarDateFromStr
 0002:000017F0       VarCyFromStr
 0002:000017F4       VarBoolFromStr
 0002:000017F8       VarBstrFromCy
 0002:000017FC       VarBstrFromDate
 0002:00001800       VarBstrFromBool
 0002:00001804       .5
 0002:00001808       EmptyParam
 0002:00001818       VarDispProc
 0002:0000181C       ClearAnyProc
 0002:00001820       ChangeAnyProc
 0002:00001824       RefAnyProc
 0002:00001828       .81
 0002:0000182C       LVarTypes
 0002:00001830       LVarTypeSync
 0002:00001848       .1
 0002:0000184C       .6
 0002:00001850       .3
 0002:00001854       GlobalNameSpace
 0002:00001858       SyncEvent
 0002:0000185C       .45
 0002:00001860       IntConstList
 0002:00001864       RegGroups
 0002:00001868       FindGlobalComponentProcs
 0002:0000186C       GlobalFixupList
 0002:00001870       ThreadLock
 0002:00001888       .2
 0002:0000188C       p
 0002:00001890       par
 0002:00001894       a
 0002:00001898       t
 0002:0000189C       ent
 0002:000018A0       psych
 0002:000018A4       used
 0002:000018A8       last_e

Bound resource files

psi.res
psi.drf


Program entry point at 0001:0001496C
